target datalayout = "e-m:e-p270:32:32-p271:32:32-p272:64:64-i64:64-i128:128-f80:128-n8:16:32:64-S128"
target triple = "x86_64-pc-linux-gnu"

%struct.strvec = type { ptr, i64, i64 }
%struct.maintenance_run_opts = type { i32, i32, i32, i32 }
%struct.child_process = type { %struct.strvec, %struct.strvec, i32, i32, i64, ptr, ptr, i32, i32, i32, ptr, i16, ptr }
%struct.gc_config = type { i32, i32, i32, i64, i32, i32, i32, i32, i32, ptr, ptr, ptr, ptr, ptr, i64, i64, i64 }

@reflog = internal global %struct.strvec { ptr @empty_strvec, i64 0, i64 0 }, align 8
@.str.26 = private unnamed_addr constant [6 x i8] c"--all\00", align 1
@.str.45 = private unnamed_addr constant [17 x i8] c"failed to run %s\00", align 1
@gc_before_repack.done = internal global i32 0, align 4
@.str.97 = private unnamed_addr constant [10 x i8] c"pack-refs\00", align 1
@.str.98 = private unnamed_addr constant [8 x i8] c"--prune\00", align 1
@.str.99 = private unnamed_addr constant [7 x i8] c"--auto\00", align 1

; Function Attrs: nounwind uwtable
define internal i32 @maintenance_task_pack_refs(ptr noundef %0, ptr noundef %1) #0 {
  %3 = alloca ptr, align 8
  %4 = alloca ptr, align 8
  %5 = alloca %struct.child_process, align 8
  store ptr %0, ptr %3, align 8, !tbaa !109
  store ptr %1, ptr %4, align 8, !tbaa !90
  call void @llvm.lifetime.start.p0(i64 120, ptr %5) #11
  call void @llvm.memcpy.p0.p0.i64(ptr align 8 %5, ptr align 8 @__const.maintenance_task_pack_refs.cmd, i64 120, i1 false)
  %6 = getelementptr inbounds nuw %struct.child_process, ptr %5, i32 0, i32 11
  %7 = load i16, ptr %6, align 8
  %8 = and i16 %7, -9
  %9 = or i16 %8, 8
  store i16 %9, ptr %6, align 8
  %10 = getelementptr inbounds nuw %struct.child_process, ptr %5, i32 0, i32 0
  call void (ptr, ...) @strvec_pushl(ptr noundef %10, ptr noundef @.str.97, ptr noundef @.str.26, ptr noundef @.str.98, ptr noundef null)
  %11 = load ptr, ptr %3, align 8, !tbaa !109
  %12 = getelementptr inbounds nuw %struct.maintenance_run_opts, ptr %11, i32 0, i32 0
  %13 = load i32, ptr %12, align 4, !tbaa !47
  %14 = icmp ne i32 %13, 0
  br i1 %14, label %15, label %18

15:                                               ; preds = %2
  %16 = getelementptr inbounds nuw %struct.child_process, ptr %5, i32 0, i32 0
  %17 = call ptr @strvec_push(ptr noundef %16, ptr noundef @.str.99)
  br label %18

18:                                               ; preds = %15, %2
  %19 = call i32 @run_command(ptr noundef %5)
  call void @llvm.lifetime.end.p0(i64 120, ptr %5) #11
  ret i32 %19
}

; Function Attrs: nounwind uwtable
define internal void @gc_before_repack(ptr noundef %0, ptr noundef %1) #0 {
  %3 = alloca ptr, align 8
  %4 = alloca ptr, align 8
  %5 = alloca %struct.child_process, align 8
  store ptr %0, ptr %3, align 8, !tbaa !109
  store ptr %1, ptr %4, align 8, !tbaa !90
  %6 = load i32, ptr @gc_before_repack.done, align 4, !tbaa !4
  %7 = add nsw i32 %6, 1
  store i32 %7, ptr @gc_before_repack.done, align 4, !tbaa !4
  %8 = icmp ne i32 %6, 0
  br i1 %8, label %9, label %10

9:                                                ; preds = %2
  br label %40

10:                                               ; preds = %2
  %11 = load ptr, ptr %4, align 8, !tbaa !90
  %12 = getelementptr inbounds nuw %struct.gc_config, ptr %11, i32 0, i32 0
  %13 = load i32, ptr %12, align 8, !tbaa !15
  %14 = icmp ne i32 %13, 0
  br i1 %14, label %15, label %21

15:                                               ; preds = %10
  %16 = load ptr, ptr %3, align 8, !tbaa !109
  %17 = load ptr, ptr %4, align 8, !tbaa !90
  %18 = call i32 @maintenance_task_pack_refs(ptr noundef %16, ptr noundef %17)
  %19 = icmp ne i32 %18, 0
  br i1 %19, label %20, label %21

20:                                               ; preds = %15
  call void (ptr, ...) @die(ptr noundef @.str.45, ptr noundef @.str.97) #12
  unreachable

21:                                               ; preds = %15, %10
  %22 = load ptr, ptr %4, align 8, !tbaa !90
  %23 = getelementptr inbounds nuw %struct.gc_config, ptr %22, i32 0, i32 1
  %24 = load i32, ptr %23, align 4, !tbaa !18
  %25 = icmp ne i32 %24, 0
  br i1 %25, label %26, label %40

26:                                               ; preds = %21
  call void @llvm.lifetime.start.p0(i64 120, ptr %5) #11
  call void @llvm.memcpy.p0.p0.i64(ptr align 8 %5, ptr align 8 @__const.gc_before_repack.cmd, i64 120, i1 false)
  %27 = getelementptr inbounds nuw %struct.child_process, ptr %5, i32 0, i32 11
  %28 = load i16, ptr %27, align 8
  %29 = and i16 %28, -9
  %30 = or i16 %29, 8
  store i16 %30, ptr %27, align 8
  %31 = getelementptr inbounds nuw %struct.child_process, ptr %5, i32 0, i32 0
  %32 = load ptr, ptr @reflog, align 8, !tbaa !52
  call void @strvec_pushv(ptr noundef %31, ptr noundef %32)
  %33 = call i32 @run_command(ptr noundef %5)
  %34 = icmp ne i32 %33, 0
  br i1 %34, label %35, label %39

35:                                               ; preds = %26
  %36 = load ptr, ptr @reflog, align 8, !tbaa !52
  %37 = getelementptr inbounds ptr, ptr %36, i64 0
  %38 = load ptr, ptr %37, align 8, !tbaa !11
  call void (ptr, ...) @die(ptr noundef @.str.45, ptr noundef %38) #12
  unreachable

39:                                               ; preds = %26
  call void @llvm.lifetime.end.p0(i64 120, ptr %5) #11
  br label %40

40:                                               ; preds = %9, %39, %21
  ret void
}