; Function Attrs: nounwind uwtable
define internal fastcc void @gc_before_repack(ptr noundef nonnull readonly captures(none) %0, ptr noundef nonnull readonly captures(none) %1) unnamed_addr #0 {
  %3 = alloca %struct.child_process, align 8
  %4 = alloca %struct.child_process, align 8
  %5 = load i32, ptr @gc_before_repack.done, align 4, !tbaa !4
  %6 = add nsw i32 %5, 1
  store i32 %6, ptr @gc_before_repack.done, align 4, !tbaa !4
  %.not = icmp eq i32 %5, 0
  br i1 %.not, label %7, label %27

7:                                                ; preds = %2
  %8 = load i32, ptr %1, align 8, !tbaa !8
  %.not4 = icmp eq i32 %8, 0
  br i1 %.not4, label %16, label %9

9:                                                ; preds = %7
  call void @llvm.lifetime.start.p0(i64 120, ptr nonnull %3) #21
  call void @llvm.memcpy.p0.p0.i64(ptr noundef nonnull align 8 dereferenceable(120) %3, ptr noundef nonnull align 8 dereferenceable(120) @__const.schtasks_remove_task.child, i64 120, i1 false)
  %10 = getelementptr inbounds nuw i8, ptr %3, i64 104
  store i16 8, ptr %10, align 8
  call void (ptr, ...) @strvec_pushl(ptr noundef nonnull %3, ptr noundef nonnull @.str.97, ptr noundef nonnull @.str.26, ptr noundef nonnull @.str.98, ptr noundef null) #21
  %11 = load i32, ptr %0, align 4, !tbaa !37
  %.not.i = icmp eq i32 %11, 0
  br i1 %.not.i, label %maintenance_task_pack_refs.exit, label %12

12:                                               ; preds = %9
  %13 = call ptr @strvec_push(ptr noundef nonnull %3, ptr noundef nonnull @.str.99) #21
  br label %maintenance_task_pack_refs.exit

maintenance_task_pack_refs.exit:                  ; preds = %9, %12
  %14 = call i32 @run_command(ptr noundef nonnull %3) #21
  call void @llvm.lifetime.end.p0(i64 120, ptr nonnull %3) #21
  %.not5 = icmp eq i32 %14, 0
  br i1 %.not5, label %16, label %15

15:                                               ; preds = %maintenance_task_pack_refs.exit
  call void (ptr, ...) @die(ptr noundef nonnull @.str.45, ptr noundef nonnull @.str.97) #22
  unreachable

16:                                               ; preds = %maintenance_task_pack_refs.exit, %7
  %17 = getelementptr inbounds nuw i8, ptr %1, i64 4
  %18 = load i32, ptr %17, align 4, !tbaa !13
  %.not6 = icmp eq i32 %18, 0
  br i1 %.not6, label %27, label %19

19:                                               ; preds = %16
  call void @llvm.lifetime.start.p0(i64 120, ptr nonnull %4) #21
  call void @llvm.memcpy.p0.p0.i64(ptr noundef nonnull align 8 dereferenceable(120) %4, ptr noundef nonnull align 8 dereferenceable(120) @__const.schtasks_remove_task.child, i64 120, i1 false)
  %20 = getelementptr inbounds nuw i8, ptr %4, i64 104
  store i16 8, ptr %20, align 8
  %21 = load ptr, ptr @reflog, align 8, !tbaa !58
  call void @strvec_pushv(ptr noundef nonnull %4, ptr noundef %21) #21
  %22 = call i32 @run_command(ptr noundef nonnull %4) #21
  %.not7 = icmp eq i32 %22, 0
  br i1 %.not7, label %26, label %23

23:                                               ; preds = %19
  %24 = load ptr, ptr @reflog, align 8, !tbaa !58
  %25 = load ptr, ptr %24, align 8, !tbaa !26
  call void (ptr, ...) @die(ptr noundef nonnull @.str.45, ptr noundef %25) #22
  unreachable

26:                                               ; preds = %19
  call void @llvm.lifetime.end.p0(i64 120, ptr nonnull %4) #21
  br label %27

27:                                               ; preds = %2, %26, %16
  ret void
}